; Function Attrs: null_pointer_is_valid sspstrong uwtable
define internal i32 @dissect_nbap_PICH_Mode(ptr noundef %0, i32 noundef %1, ptr noundef %2, ptr noundef %3, i32 noundef %4) #0 {
  %6 = alloca i32, align 4
  call void @llvm.lifetime.start.p0(i64 4, ptr nonnull %6) #9
  store i32 0, ptr %6, align 4
  %7 = call i32 @dissect_per_enumerated(ptr noundef %0, i32 noundef %1, ptr noundef %2, ptr noundef %3, i32 noundef %4, i32 noundef 4, ptr noundef nonnull %6, i1 noundef zeroext true, i32 noundef 0, ptr noundef null)
  %8 = load i32, ptr %6, align 4
  switch i32 %8, label %94 [
    i32 0, label %9
    i32 1, label %30
    i32 2, label %51
    i32 3, label %72
  ]

9:                                                ; preds = %5
  %10 = getelementptr inbounds nuw i8, ptr %2, i64 16
  %11 = load ptr, ptr %10, align 8
  %12 = getelementptr inbounds nuw i8, ptr %11, i64 408
  %13 = load ptr, ptr %12, align 8
  %14 = load i32, ptr @proto_nbap, align 4
  %15 = call ptr @p_get_proto_data(ptr noundef %13, ptr noundef %11, i32 noundef %14, i32 noundef 0)
  %16 = icmp eq ptr %15, null
  br i1 %16, label %17, label %.sink.split

17:                                               ; preds = %9
  %18 = load ptr, ptr %12, align 8
  %19 = call noalias dereferenceable_or_null(268056) ptr @wmem_alloc0(ptr noundef %18, i64 noundef 268056) #10
  %20 = load ptr, ptr %12, align 8
  %21 = load i32, ptr @proto_nbap, align 4
  call void @p_add_proto_data(ptr noundef %20, ptr noundef %11, i32 noundef %21, i32 noundef 0, ptr noundef %19)
  %22 = getelementptr inbounds nuw i8, ptr %19, i64 68
  store i32 3, ptr %22, align 4
  %23 = getelementptr inbounds nuw i8, ptr %19, i64 108
  store i8 0, ptr %23, align 4
  %24 = getelementptr inbounds nuw i8, ptr %19, i64 12
  store i32 65535, ptr %24, align 4
  %25 = getelementptr inbounds nuw i8, ptr %19, i64 40
  store i32 65535, ptr %25, align 8
  %26 = getelementptr inbounds nuw i8, ptr %19, i64 109
  store i8 2, ptr %26, align 1
  %27 = getelementptr i8, ptr %19, i64 267508
  br label %28

28:                                               ; preds = %28, %17
  %indvars.iv.i = phi i64 [ 0, %17 ], [ %indvars.iv.next.i, %28 ]
  %.idx.i = mul nuw nsw i64 %indvars.iv.i, 40
  %29 = getelementptr i8, ptr %27, i64 %.idx.i
  store i8 1, ptr %29, align 4
  %indvars.iv.next.i = add nuw nsw i64 %indvars.iv.i, 1
  %exitcond.not.i = icmp eq i64 %indvars.iv.next.i, 8
  br i1 %exitcond.not.i, label %.sink.split, label %28, !llvm.loop !9

30:                                               ; preds = %5
  %31 = getelementptr inbounds nuw i8, ptr %2, i64 16
  %32 = load ptr, ptr %31, align 8
  %33 = getelementptr inbounds nuw i8, ptr %32, i64 408
  %34 = load ptr, ptr %33, align 8
  %35 = load i32, ptr @proto_nbap, align 4
  %36 = call ptr @p_get_proto_data(ptr noundef %34, ptr noundef %32, i32 noundef %35, i32 noundef 0)
  %37 = icmp eq ptr %36, null
  br i1 %37, label %38, label %.sink.split

38:                                               ; preds = %30
  %39 = load ptr, ptr %33, align 8
  %40 = call noalias dereferenceable_or_null(268056) ptr @wmem_alloc0(ptr noundef %39, i64 noundef 268056) #10
  %41 = load ptr, ptr %33, align 8
  %42 = load i32, ptr @proto_nbap, align 4
  call void @p_add_proto_data(ptr noundef %41, ptr noundef %32, i32 noundef %42, i32 noundef 0, ptr noundef %40)
  %43 = getelementptr inbounds nuw i8, ptr %40, i64 68
  store i32 3, ptr %43, align 4
  %44 = getelementptr inbounds nuw i8, ptr %40, i64 108
  store i8 0, ptr %44, align 4
  %45 = getelementptr inbounds nuw i8, ptr %40, i64 12
  store i32 65535, ptr %45, align 4
  %46 = getelementptr inbounds nuw i8, ptr %40, i64 40
  store i32 65535, ptr %46, align 8
  %47 = getelementptr inbounds nuw i8, ptr %40, i64 109
  store i8 2, ptr %47, align 1
  %48 = getelementptr i8, ptr %40, i64 267508
  br label %49

49:                                               ; preds = %49, %38
  %indvars.iv.i10 = phi i64 [ 0, %38 ], [ %indvars.iv.next.i12, %49 ]
  %.idx.i11 = mul nuw nsw i64 %indvars.iv.i10, 40
  %50 = getelementptr i8, ptr %48, i64 %.idx.i11
  store i8 1, ptr %50, align 4
  %indvars.iv.next.i12 = add nuw nsw i64 %indvars.iv.i10, 1
  %exitcond.not.i13 = icmp eq i64 %indvars.iv.next.i12, 8
  br i1 %exitcond.not.i13, label %.sink.split, label %49, !llvm.loop !9

51:                                               ; preds = %5
  %52 = getelementptr inbounds nuw i8, ptr %2, i64 16
  %53 = load ptr, ptr %52, align 8
  %54 = getelementptr inbounds nuw i8, ptr %53, i64 408
  %55 = load ptr, ptr %54, align 8
  %56 = load i32, ptr @proto_nbap, align 4
  %57 = call ptr @p_get_proto_data(ptr noundef %55, ptr noundef %53, i32 noundef %56, i32 noundef 0)
  %58 = icmp eq ptr %57, null
  br i1 %58, label %59, label %.sink.split

59:                                               ; preds = %51
  %60 = load ptr, ptr %54, align 8
  %61 = call noalias dereferenceable_or_null(268056) ptr @wmem_alloc0(ptr noundef %60, i64 noundef 268056) #10
  %62 = load ptr, ptr %54, align 8
  %63 = load i32, ptr @proto_nbap, align 4
  call void @p_add_proto_data(ptr noundef %62, ptr noundef %53, i32 noundef %63, i32 noundef 0, ptr noundef %61)
  %64 = getelementptr inbounds nuw i8, ptr %61, i64 68
  store i32 3, ptr %64, align 4
  %65 = getelementptr inbounds nuw i8, ptr %61, i64 108
  store i8 0, ptr %65, align 4
  %66 = getelementptr inbounds nuw i8, ptr %61, i64 12
  store i32 65535, ptr %66, align 4
  %67 = getelementptr inbounds nuw i8, ptr %61, i64 40
  store i32 65535, ptr %67, align 8
  %68 = getelementptr inbounds nuw i8, ptr %61, i64 109
  store i8 2, ptr %68, align 1
  %69 = getelementptr i8, ptr %61, i64 267508
  br label %70

70:                                               ; preds = %70, %59
  %indvars.iv.i16 = phi i64 [ 0, %59 ], [ %indvars.iv.next.i18, %70 ]
  %.idx.i17 = mul nuw nsw i64 %indvars.iv.i16, 40
  %71 = getelementptr i8, ptr %69, i64 %.idx.i17
  store i8 1, ptr %71, align 4
  %indvars.iv.next.i18 = add nuw nsw i64 %indvars.iv.i16, 1
  %exitcond.not.i19 = icmp eq i64 %indvars.iv.next.i18, 8
  br i1 %exitcond.not.i19, label %.sink.split, label %70, !llvm.loop !9

72:                                               ; preds = %5
  %73 = getelementptr inbounds nuw i8, ptr %2, i64 16
  %74 = load ptr, ptr %73, align 8
  %75 = getelementptr inbounds nuw i8, ptr %74, i64 408
  %76 = load ptr, ptr %75, align 8
  %77 = load i32, ptr @proto_nbap, align 4
  %78 = call ptr @p_get_proto_data(ptr noundef %76, ptr noundef %74, i32 noundef %77, i32 noundef 0)
  %79 = icmp eq ptr %78, null
  br i1 %79, label %80, label %.sink.split

80:                                               ; preds = %72
  %81 = load ptr, ptr %75, align 8
  %82 = call noalias dereferenceable_or_null(268056) ptr @wmem_alloc0(ptr noundef %81, i64 noundef 268056) #10
  %83 = load ptr, ptr %75, align 8
  %84 = load i32, ptr @proto_nbap, align 4
  call void @p_add_proto_data(ptr noundef %83, ptr noundef %74, i32 noundef %84, i32 noundef 0, ptr noundef %82)
  %85 = getelementptr inbounds nuw i8, ptr %82, i64 68
  store i32 3, ptr %85, align 4
  %86 = getelementptr inbounds nuw i8, ptr %82, i64 108
  store i8 0, ptr %86, align 4
  %87 = getelementptr inbounds nuw i8, ptr %82, i64 12
  store i32 65535, ptr %87, align 4
  %88 = getelementptr inbounds nuw i8, ptr %82, i64 40
  store i32 65535, ptr %88, align 8
  %89 = getelementptr inbounds nuw i8, ptr %82, i64 109
  store i8 2, ptr %89, align 1
  %90 = getelementptr i8, ptr %82, i64 267508
  br label %91

91:                                               ; preds = %91, %80
  %indvars.iv.i22 = phi i64 [ 0, %80 ], [ %indvars.iv.next.i24, %91 ]
  %.idx.i23 = mul nuw nsw i64 %indvars.iv.i22, 40
  %92 = getelementptr i8, ptr %90, i64 %.idx.i23
  store i8 1, ptr %92, align 4
  %indvars.iv.next.i24 = add nuw nsw i64 %indvars.iv.i22, 1
  %exitcond.not.i25 = icmp eq i64 %indvars.iv.next.i24, 8
  br i1 %exitcond.not.i25, label %.sink.split, label %91, !llvm.loop !9

.sink.split:                                      ; preds = %91, %70, %49, %28, %72, %51, %30, %9
  %.0.i21.sink = phi ptr [ %15, %9 ], [ %36, %30 ], [ %57, %51 ], [ %78, %72 ], [ %19, %28 ], [ %40, %49 ], [ %61, %70 ], [ %82, %91 ]
  %.sink = phi i32 [ 18, %9 ], [ 36, %30 ], [ 72, %51 ], [ 144, %72 ], [ 18, %28 ], [ 36, %49 ], [ 72, %70 ], [ 144, %91 ]
  %93 = getelementptr inbounds nuw i8, ptr %.0.i21.sink, i64 96
  store i32 %.sink, ptr %93, align 8
  br label %94

94:                                               ; preds = %.sink.split, %5
  call void @llvm.lifetime.end.p0(i64 4, ptr nonnull %6) #9
  ret i32 %7
}